; Function Attrs: nounwind uwtable
define dso_local range(i32 -1, 1) i32 @sub_function(ptr noundef %0, ptr noundef %1, ptr noundef %2) local_unnamed_addr #1 {
  %4 = getelementptr inbounds nuw i8, ptr %1, i64 8
  %5 = load i8, ptr %4, align 8, !tbaa !4
  %6 = shl i8 %5, 4
  %7 = getelementptr inbounds nuw i8, ptr %2, i64 8
  %8 = load i8, ptr %7, align 8, !tbaa !4
  %9 = or i8 %6, %8
  switch i8 %9, label %sub_function_fast.exit [
    i8 68, label %10
    i8 85, label %18
    i8 69, label %23
    i8 84, label %29
  ], !prof !92

10:                                               ; preds = %3
  callbr void asm sideeffect "movq\09($1), %rax\0A\09subq   ($2), %rax\0A\09jo     ${5:l}\0A\09movq   %rax, ($0)\0A\09movl   $3, ${4:c}($0)\0A", "r,r,r,n,n,!i,~{rax},~{cc},~{memory},~{dirflag},~{fpsr},~{flags}"(ptr %0, ptr %1, ptr %2, i32 4, i64 8) #28
          to label %sub_function_fast.exit.thread [label %11], !srcloc !93

11:                                               ; preds = %10
  %12 = load i64, ptr %1, align 8, !tbaa !4
  %13 = sitofp i64 %12 to double
  %14 = load i64, ptr %2, align 8, !tbaa !4
  %15 = sitofp i64 %14 to double
  %16 = fsub double %13, %15
  store double %16, ptr %0, align 8, !tbaa !4
  %17 = getelementptr inbounds nuw i8, ptr %0, i64 8
  store i32 5, ptr %17, align 8, !tbaa !4
  br label %sub_function_fast.exit.thread

18:                                               ; preds = %3
  %19 = load double, ptr %1, align 8, !tbaa !4
  %20 = load double, ptr %2, align 8, !tbaa !4
  %21 = fsub double %19, %20
  store double %21, ptr %0, align 8, !tbaa !4
  %22 = getelementptr inbounds nuw i8, ptr %0, i64 8
  store i32 5, ptr %22, align 8, !tbaa !4
  br label %sub_function_fast.exit.thread

23:                                               ; preds = %3
  %24 = load i64, ptr %1, align 8, !tbaa !4
  %25 = sitofp i64 %24 to double
  %26 = load double, ptr %2, align 8, !tbaa !4
  %27 = fsub double %25, %26
  store double %27, ptr %0, align 8, !tbaa !4
  %28 = getelementptr inbounds nuw i8, ptr %0, i64 8
  store i32 5, ptr %28, align 8, !tbaa !4
  br label %sub_function_fast.exit.thread

29:                                               ; preds = %3
  %30 = load double, ptr %1, align 8, !tbaa !4
  %31 = load i64, ptr %2, align 8, !tbaa !4
  %32 = sitofp i64 %31 to double
  %33 = fsub double %30, %32
  store double %33, ptr %0, align 8, !tbaa !4
  %34 = getelementptr inbounds nuw i8, ptr %0, i64 8
  store i32 5, ptr %34, align 8, !tbaa !4
  br label %sub_function_fast.exit.thread

sub_function_fast.exit:                           ; preds = %3
  %35 = tail call fastcc i32 @sub_function_slow(ptr noundef %0, ptr noundef nonnull %1, ptr noundef nonnull %2)
  br label %sub_function_fast.exit.thread

sub_function_fast.exit.thread:                    ; preds = %11, %10, %29, %23, %18, %sub_function_fast.exit
  %.0 = phi i32 [ %35, %sub_function_fast.exit ], [ 0, %18 ], [ 0, %23 ], [ 0, %29 ], [ 0, %10 ], [ 0, %11 ]
  ret i32 %.0
}